; Function Attrs: mustprogress uwtable
define void @_ZN2cv8ximgproc27createEdgeAwareInterpolatorEv(ptr dead_on_unwind noalias writable writeonly sret(%"struct.cv::Ptr.8") align 8 captures(none) initializes((0, 16)) %0) local_unnamed_addr #3 personality ptr @__gxx_personality_v0 {
_ZNSt12__shared_ptrIN2cv8ximgproc25EdgeAwareInterpolatorImplELN9__gnu_cxx12_Lock_policyE2EED2Ev.exit:
  %1 = alloca %"struct.cv::Ptr", align 8
  call void @llvm.lifetime.start.p0(i64 16, ptr nonnull %1) #31
  call void @_ZN2cv8ximgproc25EdgeAwareInterpolatorImpl6createEv(ptr dead_on_unwind nonnull writable sret(%"struct.cv::Ptr") align 8 %1)
  %2 = load ptr, ptr %1, align 8, !tbaa !34
  store ptr %2, ptr %0, align 8, !tbaa !245
  %3 = getelementptr inbounds nuw i8, ptr %0, i64 8
  %4 = getelementptr inbounds nuw i8, ptr %1, i64 8
  %5 = load ptr, ptr %4, align 8, !tbaa !39
  store ptr %5, ptr %3, align 8, !tbaa !39
  call void @llvm.lifetime.end.p0(i64 16, ptr nonnull %1) #31
  ret void
}